target datalayout = "e-m:e-p270:32:32-p271:32:32-p272:64:64-i64:64-i128:128-f80:128-n8:16:32:64-S128"
target triple = "x86_64-unknown-linux-gnu"

%"class.icu_75::TransliterationRule" = type { ptr, ptr, ptr, ptr, ptr, %"class.icu_75::UnicodeString", ptr, i32, i32, i32, i8, ptr }
%"class.icu_75::UnicodeString" = type { %"class.icu_75::Replaceable", %"union.icu_75::UnicodeString::StackBufferOrFields" }
%"class.icu_75::Replaceable" = type { %"class.icu_75::UObject" }
%"class.icu_75::UObject" = type { ptr }
%"union.icu_75::UnicodeString::StackBufferOrFields" = type { %struct.anon.0, [32 x i8] }
%struct.anon.0 = type { i16, i32, i32, ptr }
%struct.anon = type { i16, [27 x i16] }

; Function Attrs: mustprogress nounwind uwtable
define linkonce_odr noundef ptr @_ZNK6icu_7513UnicodeString13getArrayStartEv(ptr noundef nonnull align 8 dereferenceable(64) %this) #0 comdat align 2 {
entry:
  %this.addr = alloca ptr, align 8
  store ptr %this, ptr %this.addr, align 8
  %this1 = load ptr, ptr %this.addr, align 8
  %fUnion = getelementptr inbounds %"class.icu_75::UnicodeString", ptr %this1, i32 0, i32 1
  %fLengthAndFlags = getelementptr inbounds %struct.anon.0, ptr %fUnion, i32 0, i32 0
  %0 = load i16, ptr %fLengthAndFlags, align 8
  %conv = sext i16 %0 to i32
  %and = and i32 %conv, 2
  %tobool = icmp ne i32 %and, 0
  br i1 %tobool, label %cond.true, label %cond.false

cond.true:                                        ; preds = %entry
  %fUnion2 = getelementptr inbounds %"class.icu_75::UnicodeString", ptr %this1, i32 0, i32 1
  %fBuffer = getelementptr inbounds %struct.anon, ptr %fUnion2, i32 0, i32 1
  %arraydecay = getelementptr inbounds [27 x i16], ptr %fBuffer, i64 0, i64 0
  br label %cond.end

cond.false:                                       ; preds = %entry
  %fUnion3 = getelementptr inbounds %"class.icu_75::UnicodeString", ptr %this1, i32 0, i32 1
  %fArray = getelementptr inbounds %struct.anon.0, ptr %fUnion3, i32 0, i32 3
  %1 = load ptr, ptr %fArray, align 8
  br label %cond.end

cond.end:                                         ; preds = %cond.false, %cond.true
  %cond = phi ptr [ %arraydecay, %cond.true ], [ %1, %cond.false ]
  ret ptr %cond
}

; Function Attrs: mustprogress uwtable
define linkonce_odr void @_ZNK6icu_7513UnicodeString10pinIndicesERiS1_(ptr noundef nonnull align 8 dereferenceable(64) %this, ptr noundef nonnull align 4 dereferenceable(4) %start, ptr noundef nonnull align 4 dereferenceable(4) %_length) #1 comdat align 2 {
entry:
  %this.addr = alloca ptr, align 8
  %start.addr = alloca ptr, align 8
  %_length.addr = alloca ptr, align 8
  %len = alloca i32, align 4
  store ptr %this, ptr %this.addr, align 8
  store ptr %start, ptr %start.addr, align 8
  store ptr %_length, ptr %_length.addr, align 8
  %this1 = load ptr, ptr %this.addr, align 8
  %call = call noundef i32 @_ZNK6icu_7513UnicodeString6lengthEv(ptr noundef nonnull align 8 dereferenceable(64) %this1)
  store i32 %call, ptr %len, align 4
  %0 = load ptr, ptr %start.addr, align 8
  %1 = load i32, ptr %0, align 4
  %cmp = icmp slt i32 %1, 0
  br i1 %cmp, label %if.then, label %if.else

if.then:                                          ; preds = %entry
  %2 = load ptr, ptr %start.addr, align 8
  store i32 0, ptr %2, align 4
  br label %if.end4

if.else:                                          ; preds = %entry
  %3 = load ptr, ptr %start.addr, align 8
  %4 = load i32, ptr %3, align 4
  %5 = load i32, ptr %len, align 4
  %cmp2 = icmp sgt i32 %4, %5
  br i1 %cmp2, label %if.then3, label %if.end

if.then3:                                         ; preds = %if.else
  %6 = load i32, ptr %len, align 4
  %7 = load ptr, ptr %start.addr, align 8
  store i32 %6, ptr %7, align 4
  br label %if.end

if.end:                                           ; preds = %if.then3, %if.else
  br label %if.end4

if.end4:                                          ; preds = %if.end, %if.then
  %8 = load ptr, ptr %_length.addr, align 8
  %9 = load i32, ptr %8, align 4
  %cmp5 = icmp slt i32 %9, 0
  br i1 %cmp5, label %if.then6, label %if.else7

if.then6:                                         ; preds = %if.end4
  %10 = load ptr, ptr %_length.addr, align 8
  store i32 0, ptr %10, align 4
  br label %if.end12

if.else7:                                         ; preds = %if.end4
  %11 = load ptr, ptr %_length.addr, align 8
  %12 = load i32, ptr %11, align 4
  %13 = load i32, ptr %len, align 4
  %14 = load ptr, ptr %start.addr, align 8
  %15 = load i32, ptr %14, align 4
  %sub = sub nsw i32 %13, %15
  %cmp8 = icmp sgt i32 %12, %sub
  br i1 %cmp8, label %if.then9, label %if.end11

if.then9:                                         ; preds = %if.else7
  %16 = load i32, ptr %len, align 4
  %17 = load ptr, ptr %start.addr, align 8
  %18 = load i32, ptr %17, align 4
  %sub10 = sub nsw i32 %16, %18
  %19 = load ptr, ptr %_length.addr, align 8
  store i32 %sub10, ptr %19, align 4
  br label %if.end11

if.end11:                                         ; preds = %if.then9, %if.else7
  br label %if.end12

if.end12:                                         ; preds = %if.end11, %if.then6
  ret void
}

; Function Attrs: mustprogress nounwind uwtable
define linkonce_odr noundef signext i8 @_ZNK6icu_7513UnicodeString7isBogusEv(ptr noundef nonnull align 8 dereferenceable(64) %this) #0 comdat align 2 {
entry:
  %this.addr = alloca ptr, align 8
  store ptr %this, ptr %this.addr, align 8
  %this1 = load ptr, ptr %this.addr, align 8
  %fUnion = getelementptr inbounds %"class.icu_75::UnicodeString", ptr %this1, i32 0, i32 1
  %fLengthAndFlags = getelementptr inbounds %struct.anon.0, ptr %fUnion, i32 0, i32 0
  %0 = load i16, ptr %fLengthAndFlags, align 8
  %conv = sext i16 %0 to i32
  %and = and i32 %conv, 1
  %conv2 = trunc i32 %and to i8
  ret i8 %conv2
}

; Function Attrs: mustprogress uwtable
define linkonce_odr noundef signext i8 @_ZNK6icu_7513UnicodeString9doCompareEiiRKS0_ii(ptr noundef nonnull align 8 dereferenceable(64) %this, i32 noundef %start, i32 noundef %thisLength, ptr noundef nonnull align 8 dereferenceable(64) %srcText, i32 noundef %srcStart, i32 noundef %srcLength) #1 comdat align 2 {
entry:
  %retval = alloca i8, align 1
  %this.addr = alloca ptr, align 8
  %start.addr = alloca i32, align 4
  %thisLength.addr = alloca i32, align 4
  %srcText.addr = alloca ptr, align 8
  %srcStart.addr = alloca i32, align 4
  %srcLength.addr = alloca i32, align 4
  store ptr %this, ptr %this.addr, align 8
  store i32 %start, ptr %start.addr, align 4
  store i32 %thisLength, ptr %thisLength.addr, align 4
  store ptr %srcText, ptr %srcText.addr, align 8
  store i32 %srcStart, ptr %srcStart.addr, align 4
  store i32 %srcLength, ptr %srcLength.addr, align 4
  %this1 = load ptr, ptr %this.addr, align 8
  %0 = load ptr, ptr %srcText.addr, align 8
  %call = call noundef signext i8 @_ZNK6icu_7513UnicodeString7isBogusEv(ptr noundef nonnull align 8 dereferenceable(64) %0)
  %tobool = icmp ne i8 %call, 0
  br i1 %tobool, label %if.then, label %if.else

if.then:                                          ; preds = %entry
  %call2 = call noundef signext i8 @_ZNK6icu_7513UnicodeString7isBogusEv(ptr noundef nonnull align 8 dereferenceable(64) %this1)
  %tobool3 = icmp ne i8 %call2, 0
  %lnot = xor i1 %tobool3, true
  %conv = zext i1 %lnot to i8
  store i8 %conv, ptr %retval, align 1
  br label %return

if.else:                                          ; preds = %entry
  %1 = load ptr, ptr %srcText.addr, align 8
  call void @_ZNK6icu_7513UnicodeString10pinIndicesERiS1_(ptr noundef nonnull align 8 dereferenceable(64) %1, ptr noundef nonnull align 4 dereferenceable(4) %srcStart.addr, ptr noundef nonnull align 4 dereferenceable(4) %srcLength.addr)
  %2 = load i32, ptr %start.addr, align 4
  %3 = load i32, ptr %thisLength.addr, align 4
  %4 = load ptr, ptr %srcText.addr, align 8
  %call4 = call noundef ptr @_ZNK6icu_7513UnicodeString13getArrayStartEv(ptr noundef nonnull align 8 dereferenceable(64) %4)
  %5 = load i32, ptr %srcStart.addr, align 4
  %6 = load i32, ptr %srcLength.addr, align 4
  %call5 = call noundef signext i8 @_ZNK6icu_7513UnicodeString9doCompareEiiPKDsii(ptr noundef nonnull align 8 dereferenceable(64) %this1, i32 noundef %2, i32 noundef %3, ptr noundef %call4, i32 noundef %5, i32 noundef %6)
  store i8 %call5, ptr %retval, align 1
  br label %return

return:                                           ; preds = %if.else, %if.then
  %7 = load i8, ptr %retval, align 1
  ret i8 %7
}

; Function Attrs: mustprogress nounwind uwtable
define linkonce_odr noundef i32 @_ZNK6icu_7513UnicodeString14getShortLengthEv(ptr noundef nonnull align 8 dereferenceable(64) %this) #0 comdat align 2 {
entry:
  %this.addr = alloca ptr, align 8
  store ptr %this, ptr %this.addr, align 8
  %this1 = load ptr, ptr %this.addr, align 8
  %fUnion = getelementptr inbounds %"class.icu_75::UnicodeString", ptr %this1, i32 0, i32 1
  %fLengthAndFlags = getelementptr inbounds %struct.anon.0, ptr %fUnion, i32 0, i32 0
  %0 = load i16, ptr %fLengthAndFlags, align 8
  %conv = sext i16 %0 to i32
  %shr = ashr i32 %conv, 5
  ret i32 %shr
}

; Function Attrs: mustprogress nounwind uwtable
define linkonce_odr noundef signext i8 @_ZNK6icu_7513UnicodeString14hasShortLengthEv(ptr noundef nonnull align 8 dereferenceable(64) %this) #0 comdat align 2 {
entry:
  %this.addr = alloca ptr, align 8
  store ptr %this, ptr %this.addr, align 8
  %this1 = load ptr, ptr %this.addr, align 8
  %fUnion = getelementptr inbounds %"class.icu_75::UnicodeString", ptr %this1, i32 0, i32 1
  %fLengthAndFlags = getelementptr inbounds %struct.anon.0, ptr %fUnion, i32 0, i32 0
  %0 = load i16, ptr %fLengthAndFlags, align 8
  %conv = sext i16 %0 to i32
  %cmp = icmp sge i32 %conv, 0
  %conv2 = zext i1 %cmp to i8
  ret i8 %conv2
}

; Function Attrs: mustprogress uwtable
define linkonce_odr noundef signext i8 @_ZNK6icu_7513UnicodeString7compareEiiRKS0_(ptr noundef nonnull align 8 dereferenceable(64) %this, i32 noundef %start, i32 noundef %_length, ptr noundef nonnull align 8 dereferenceable(64) %srcText) #1 comdat align 2 {
entry:
  %this.addr = alloca ptr, align 8
  %start.addr = alloca i32, align 4
  %_length.addr = alloca i32, align 4
  %srcText.addr = alloca ptr, align 8
  store ptr %this, ptr %this.addr, align 8
  store i32 %start, ptr %start.addr, align 4
  store i32 %_length, ptr %_length.addr, align 4
  store ptr %srcText, ptr %srcText.addr, align 8
  %this1 = load ptr, ptr %this.addr, align 8
  %0 = load i32, ptr %start.addr, align 4
  %1 = load i32, ptr %_length.addr, align 4
  %2 = load ptr, ptr %srcText.addr, align 8
  %3 = load ptr, ptr %srcText.addr, align 8
  %call = call noundef i32 @_ZNK6icu_7513UnicodeString6lengthEv(ptr noundef nonnull align 8 dereferenceable(64) %3)
  %call2 = call noundef signext i8 @_ZNK6icu_7513UnicodeString9doCompareEiiRKS0_ii(ptr noundef nonnull align 8 dereferenceable(64) %this1, i32 noundef %0, i32 noundef %1, ptr noundef nonnull align 8 dereferenceable(64) %2, i32 noundef 0, i32 noundef %call)
  ret i8 %call2
}

; Function Attrs: mustprogress uwtable
define linkonce_odr noundef i32 @_ZNK6icu_7513UnicodeString6lengthEv(ptr noundef nonnull align 8 dereferenceable(64) %this) #1 comdat align 2 {
entry:
  %this.addr = alloca ptr, align 8
  store ptr %this, ptr %this.addr, align 8
  %this1 = load ptr, ptr %this.addr, align 8
  %call = call noundef signext i8 @_ZNK6icu_7513UnicodeString14hasShortLengthEv(ptr noundef nonnull align 8 dereferenceable(64) %this1)
  %tobool = icmp ne i8 %call, 0
  br i1 %tobool, label %cond.true, label %cond.false

cond.true:                                        ; preds = %entry
  %call2 = call noundef i32 @_ZNK6icu_7513UnicodeString14getShortLengthEv(ptr noundef nonnull align 8 dereferenceable(64) %this1)
  br label %cond.end

cond.false:                                       ; preds = %entry
  %fUnion = getelementptr inbounds %"class.icu_75::UnicodeString", ptr %this1, i32 0, i32 1
  %fLength = getelementptr inbounds %struct.anon.0, ptr %fUnion, i32 0, i32 1
  %0 = load i32, ptr %fLength, align 4
  br label %cond.end

cond.end:                                         ; preds = %cond.false, %cond.true
  %cond = phi i32 [ %call2, %cond.true ], [ %0, %cond.false ]
  ret i32 %cond
}

; Function Attrs: mustprogress uwtable
define noundef signext i8 @_ZNK6icu_7519TransliterationRule5masksERKS0_(ptr noundef nonnull align 8 dereferenceable(136) %this, ptr noundef nonnull align 8 dereferenceable(136) %r2) unnamed_addr #1 align 2 {
entry:
  %retval = alloca i8, align 1
  %this.addr = alloca ptr, align 8
  %r2.addr = alloca ptr, align 8
  %len = alloca i32, align 4
  %left = alloca i32, align 4
  %left2 = alloca i32, align 4
  %right = alloca i32, align 4
  %right2 = alloca i32, align 4
  %cachedCompare = alloca i32, align 4
  store ptr %this, ptr %this.addr, align 8
  store ptr %r2, ptr %r2.addr, align 8
  %this1 = load ptr, ptr %this.addr, align 8
  %pattern = getelementptr inbounds %"class.icu_75::TransliterationRule", ptr %this1, i32 0, i32 5
  %call = call noundef i32 @_ZNK6icu_7513UnicodeString6lengthEv(ptr noundef nonnull align 8 dereferenceable(64) %pattern)
  store i32 %call, ptr %len, align 4
  %anteContextLength = getelementptr inbounds %"class.icu_75::TransliterationRule", ptr %this1, i32 0, i32 8
  %0 = load i32, ptr %anteContextLength, align 4
  store i32 %0, ptr %left, align 4
  %1 = load ptr, ptr %r2.addr, align 8
  %anteContextLength2 = getelementptr inbounds %"class.icu_75::TransliterationRule", ptr %1, i32 0, i32 8
  %2 = load i32, ptr %anteContextLength2, align 4
  store i32 %2, ptr %left2, align 4
  %3 = load i32, ptr %len, align 4
  %4 = load i32, ptr %left, align 4
  %sub = sub nsw i32 %3, %4
  store i32 %sub, ptr %right, align 4
  %5 = load ptr, ptr %r2.addr, align 8
  %pattern3 = getelementptr inbounds %"class.icu_75::TransliterationRule", ptr %5, i32 0, i32 5
  %call4 = call noundef i32 @_ZNK6icu_7513UnicodeString6lengthEv(ptr noundef nonnull align 8 dereferenceable(64) %pattern3)
  %6 = load i32, ptr %left2, align 4
  %sub5 = sub nsw i32 %call4, %6
  store i32 %sub5, ptr %right2, align 4
  %7 = load ptr, ptr %r2.addr, align 8
  %pattern6 = getelementptr inbounds %"class.icu_75::TransliterationRule", ptr %7, i32 0, i32 5
  %8 = load i32, ptr %left2, align 4
  %9 = load i32, ptr %left, align 4
  %sub7 = sub nsw i32 %8, %9
  %10 = load i32, ptr %len, align 4
  %pattern8 = getelementptr inbounds %"class.icu_75::TransliterationRule", ptr %this1, i32 0, i32 5
  %call9 = call noundef signext i8 @_ZNK6icu_7513UnicodeString7compareEiiRKS0_(ptr noundef nonnull align 8 dereferenceable(64) %pattern6, i32 noundef %sub7, i32 noundef %10, ptr noundef nonnull align 8 dereferenceable(64) %pattern8)
  %conv = sext i8 %call9 to i32
  store i32 %conv, ptr %cachedCompare, align 4
  %11 = load i32, ptr %left, align 4
  %12 = load i32, ptr %left2, align 4
  %cmp = icmp eq i32 %11, %12
  br i1 %cmp, label %land.lhs.true, label %if.end

land.lhs.true:                                    ; preds = %entry
  %13 = load i32, ptr %right, align 4
  %14 = load i32, ptr %right2, align 4
  %cmp10 = icmp eq i32 %13, %14
  br i1 %cmp10, label %land.lhs.true11, label %if.end

land.lhs.true11:                                  ; preds = %land.lhs.true
  %keyLength = getelementptr inbounds %"class.icu_75::TransliterationRule", ptr %this1, i32 0, i32 9
  %15 = load i32, ptr %keyLength, align 8
  %16 = load ptr, ptr %r2.addr, align 8
  %keyLength12 = getelementptr inbounds %"class.icu_75::TransliterationRule", ptr %16, i32 0, i32 9
  %17 = load i32, ptr %keyLength12, align 8
  %cmp13 = icmp sle i32 %15, %17
  br i1 %cmp13, label %land.lhs.true14, label %if.end

land.lhs.true14:                                  ; preds = %land.lhs.true11
  %18 = load i32, ptr %cachedCompare, align 4
  %cmp15 = icmp eq i32 0, %18
  br i1 %cmp15, label %if.then, label %if.end

if.then:                                          ; preds = %land.lhs.true14
  %flags = getelementptr inbounds %"class.icu_75::TransliterationRule", ptr %this1, i32 0, i32 10
  %19 = load i8, ptr %flags, align 4
  %conv16 = sext i8 %19 to i32
  %20 = load ptr, ptr %r2.addr, align 8
  %flags17 = getelementptr inbounds %"class.icu_75::TransliterationRule", ptr %20, i32 0, i32 10
  %21 = load i8, ptr %flags17, align 4
  %conv18 = sext i8 %21 to i32
  %cmp19 = icmp eq i32 %conv16, %conv18
  br i1 %cmp19, label %lor.end, label %lor.lhs.false

lor.lhs.false:                                    ; preds = %if.then
  %flags20 = getelementptr inbounds %"class.icu_75::TransliterationRule", ptr %this1, i32 0, i32 10
  %22 = load i8, ptr %flags20, align 4
  %conv21 = sext i8 %22 to i32
  %and = and i32 %conv21, 1
  %tobool = icmp ne i32 %and, 0
  br i1 %tobool, label %lor.rhs, label %land.lhs.true22

land.lhs.true22:                                  ; preds = %lor.lhs.false
  %flags23 = getelementptr inbounds %"class.icu_75::TransliterationRule", ptr %this1, i32 0, i32 10
  %23 = load i8, ptr %flags23, align 4
  %conv24 = sext i8 %23 to i32
  %and25 = and i32 %conv24, 2
  %tobool26 = icmp ne i32 %and25, 0
  br i1 %tobool26, label %lor.rhs, label %lor.end

lor.rhs:                                          ; preds = %land.lhs.true22, %lor.lhs.false
  %24 = load ptr, ptr %r2.addr, align 8
  %flags27 = getelementptr inbounds %"class.icu_75::TransliterationRule", ptr %24, i32 0, i32 10
  %25 = load i8, ptr %flags27, align 4
  %conv28 = sext i8 %25 to i32
  %and29 = and i32 %conv28, 1
  %tobool30 = icmp ne i32 %and29, 0
  br i1 %tobool30, label %land.rhs, label %land.end

land.rhs:                                         ; preds = %lor.rhs
  %26 = load ptr, ptr %r2.addr, align 8
  %flags31 = getelementptr inbounds %"class.icu_75::TransliterationRule", ptr %26, i32 0, i32 10
  %27 = load i8, ptr %flags31, align 4
  %conv32 = sext i8 %27 to i32
  %and33 = and i32 %conv32, 2
  %tobool34 = icmp ne i32 %and33, 0
  br label %land.end

land.end:                                         ; preds = %land.rhs, %lor.rhs
  %28 = phi i1 [ false, %lor.rhs ], [ %tobool34, %land.rhs ]
  br label %lor.end

lor.end:                                          ; preds = %land.end, %land.lhs.true22, %if.then
  %29 = phi i1 [ true, %land.lhs.true22 ], [ true, %if.then ], [ %28, %land.end ]
  %conv35 = zext i1 %29 to i8
  store i8 %conv35, ptr %retval, align 1
  br label %return

if.end:                                           ; preds = %land.lhs.true14, %land.lhs.true11, %land.lhs.true, %entry
  %30 = load i32, ptr %left, align 4
  %31 = load i32, ptr %left2, align 4
  %cmp36 = icmp sle i32 %30, %31
  br i1 %cmp36, label %land.lhs.true37, label %land.end47

land.lhs.true37:                                  ; preds = %if.end
  %32 = load i32, ptr %right, align 4
  %33 = load i32, ptr %right2, align 4
  %cmp38 = icmp slt i32 %32, %33
  br i1 %cmp38, label %land.rhs45, label %lor.lhs.false39

lor.lhs.false39:                                  ; preds = %land.lhs.true37
  %34 = load i32, ptr %right, align 4
  %35 = load i32, ptr %right2, align 4
  %cmp40 = icmp eq i32 %34, %35
  br i1 %cmp40, label %land.lhs.true41, label %land.end47

land.lhs.true41:                                  ; preds = %lor.lhs.false39
  %keyLength42 = getelementptr inbounds %"class.icu_75::TransliterationRule", ptr %this1, i32 0, i32 9
  %36 = load i32, ptr %keyLength42, align 8
  %37 = load ptr, ptr %r2.addr, align 8
  %keyLength43 = getelementptr inbounds %"class.icu_75::TransliterationRule", ptr %37, i32 0, i32 9
  %38 = load i32, ptr %keyLength43, align 8
  %cmp44 = icmp sle i32 %36, %38
  br i1 %cmp44, label %land.rhs45, label %land.end47

land.rhs45:                                       ; preds = %land.lhs.true41, %land.lhs.true37
  %39 = load i32, ptr %cachedCompare, align 4
  %cmp46 = icmp eq i32 0, %39
  br label %land.end47

land.end47:                                       ; preds = %land.rhs45, %land.lhs.true41, %lor.lhs.false39, %if.end
  %40 = phi i1 [ false, %land.lhs.true41 ], [ false, %lor.lhs.false39 ], [ false, %if.end ], [ %cmp46, %land.rhs45 ]
  %conv48 = zext i1 %40 to i8
  store i8 %conv48, ptr %retval, align 1
  br label %return

return:                                           ; preds = %land.end47, %lor.end
  %41 = load i8, ptr %retval, align 1
  ret i8 %41
}