; Function Attrs: mustprogress uwtable
define noundef signext i8 @_ZNK6icu_7519TransliterationRule5masksERKS0_(ptr noundef nonnull align 8 dereferenceable(136) %this, ptr noundef nonnull align 8 dereferenceable(136) %r2) unnamed_addr #1 align 2 {
entry:
  %fUnion.i.i = getelementptr inbounds i8, ptr %this, i64 48
  %0 = load i16, ptr %fUnion.i.i, align 8
  %cmp.i.i = icmp slt i16 %0, 0
  %1 = ashr i16 %0, 5
  %shr.i.i = sext i16 %1 to i32
  %fLength.i = getelementptr inbounds i8, ptr %this, i64 52
  %2 = load i32, ptr %fLength.i, align 4
  %cond.i = select i1 %cmp.i.i, i32 %2, i32 %shr.i.i
  %anteContextLength = getelementptr inbounds i8, ptr %this, i64 116
  %3 = load i32, ptr %anteContextLength, align 4
  %anteContextLength2 = getelementptr inbounds i8, ptr %r2, i64 116
  %4 = load i32, ptr %anteContextLength2, align 4
  %sub = sub nsw i32 %cond.i, %3
  %fUnion.i.i22 = getelementptr inbounds i8, ptr %r2, i64 48
  %5 = load i16, ptr %fUnion.i.i22, align 8
  %cmp.i.i23 = icmp slt i16 %5, 0
  %6 = ashr i16 %5, 5
  %shr.i.i24 = sext i16 %6 to i32
  %fLength.i25 = getelementptr inbounds i8, ptr %r2, i64 52
  %7 = load i32, ptr %fLength.i25, align 4
  %cond.i26 = select i1 %cmp.i.i23, i32 %7, i32 %shr.i.i24
  %sub5 = sub nsw i32 %cond.i26, %4
  %conv2.i10.i.i = and i16 %0, 1
  %tobool.not.i.i = icmp eq i16 %conv2.i10.i.i, 0
  br i1 %tobool.not.i.i, label %if.else.i.i, label %if.then.i.i

if.then.i.i:                                      ; preds = %entry
  %8 = trunc i16 %5 to i8
  %9 = and i8 %8, 1
  %conv.i.i = xor i8 %9, 1
  br label %_ZNK6icu_7513UnicodeString7compareEiiRKS0_.exit

if.else.i.i:                                      ; preds = %entry
  %sub7 = sub nsw i32 %4, %3
  %pattern3 = getelementptr inbounds i8, ptr %r2, i64 40
  %spec.select.i.i = tail call i32 @llvm.smin.i32(i32 %cond.i, i32 0)
  %cmp5.i.i.i = icmp slt i32 %cond.i, 0
  %sub.i.i.i = sub nsw i32 %cond.i, %spec.select.i.i
  %spec.select9.i.i = tail call i32 @llvm.smin.i32(i32 %sub.i.i.i, i32 %cond.i)
  %srcLength.addr.0.i.i = select i1 %cmp5.i.i.i, i32 0, i32 %spec.select9.i.i
  %10 = and i16 %0, 2
  %tobool.not.i.i.i = icmp eq i16 %10, 0
  %fBuffer.i.i.i = getelementptr inbounds i8, ptr %this, i64 50
  %fArray.i.i.i = getelementptr inbounds i8, ptr %this, i64 64
  %11 = load ptr, ptr %fArray.i.i.i, align 8
  %cond.i.i.i = select i1 %tobool.not.i.i.i, ptr %11, ptr %fBuffer.i.i.i
  %call5.i.i = tail call noundef signext i8 @_ZNK6icu_7513UnicodeString9doCompareEiiPKDsii(ptr noundef nonnull align 8 dereferenceable(64) %pattern3, i32 noundef %sub7, i32 noundef %cond.i, ptr noundef %cond.i.i.i, i32 noundef %spec.select.i.i, i32 noundef %srcLength.addr.0.i.i)
  br label %_ZNK6icu_7513UnicodeString7compareEiiRKS0_.exit

_ZNK6icu_7513UnicodeString7compareEiiRKS0_.exit:  ; preds = %if.then.i.i, %if.else.i.i
  %retval.0.i.i = phi i8 [ %conv.i.i, %if.then.i.i ], [ %call5.i.i, %if.else.i.i ]
  %cmp = icmp eq i32 %3, %4
  %cmp10 = icmp eq i32 %sub, %sub5
  %or.cond20 = select i1 %cmp, i1 %cmp10, i1 false
  br i1 %or.cond20, label %land.lhs.true11, label %if.end

land.lhs.true11:                                  ; preds = %_ZNK6icu_7513UnicodeString7compareEiiRKS0_.exit
  %keyLength = getelementptr inbounds i8, ptr %this, i64 120
  %12 = load i32, ptr %keyLength, align 8
  %keyLength12 = getelementptr inbounds i8, ptr %r2, i64 120
  %13 = load i32, ptr %keyLength12, align 8
  %cmp13 = icmp sle i32 %12, %13
  %cmp15 = icmp eq i8 %retval.0.i.i, 0
  %or.cond = and i1 %cmp15, %cmp13
  br i1 %or.cond, label %if.then, label %if.end

if.then:                                          ; preds = %land.lhs.true11
  %flags = getelementptr inbounds i8, ptr %this, i64 124
  %14 = load i8, ptr %flags, align 4
  %flags17 = getelementptr inbounds i8, ptr %r2, i64 124
  %15 = load i8, ptr %flags17, align 4
  %cmp19 = icmp eq i8 %14, %15
  %16 = and i8 %14, 3
  %or.cond21 = icmp eq i8 %16, 0
  %or.cond27 = or i1 %cmp19, %or.cond21
  br i1 %or.cond27, label %return, label %lor.rhs

lor.rhs:                                          ; preds = %if.then
  %17 = and i8 %15, 1
  %tobool30.not = icmp eq i8 %17, 0
  br i1 %tobool30.not, label %return, label %land.rhs

land.rhs:                                         ; preds = %lor.rhs
  %18 = lshr i8 %15, 1
  %19 = and i8 %18, 1
  br label %return

if.end:                                           ; preds = %land.lhs.true11, %_ZNK6icu_7513UnicodeString7compareEiiRKS0_.exit
  %cmp36.not = icmp sgt i32 %3, %4
  br i1 %cmp36.not, label %return, label %land.lhs.true37

land.lhs.true37:                                  ; preds = %if.end
  %cmp38 = icmp slt i32 %sub, %sub5
  br i1 %cmp38, label %land.rhs45, label %lor.lhs.false39

lor.lhs.false39:                                  ; preds = %land.lhs.true37
  br i1 %cmp10, label %land.lhs.true41, label %return

land.lhs.true41:                                  ; preds = %lor.lhs.false39
  %keyLength42 = getelementptr inbounds i8, ptr %this, i64 120
  %20 = load i32, ptr %keyLength42, align 8
  %keyLength43 = getelementptr inbounds i8, ptr %r2, i64 120
  %21 = load i32, ptr %keyLength43, align 8
  %cmp44.not = icmp sgt i32 %20, %21
  br i1 %cmp44.not, label %return, label %land.rhs45

land.rhs45:                                       ; preds = %land.lhs.true41, %land.lhs.true37
  %cmp46 = icmp eq i8 %retval.0.i.i, 0
  %22 = zext i1 %cmp46 to i8
  br label %return

return:                                           ; preds = %if.end, %lor.lhs.false39, %land.lhs.true41, %land.rhs45, %if.then, %land.rhs, %lor.rhs
  %retval.0 = phi i8 [ 1, %if.then ], [ 0, %lor.rhs ], [ %19, %land.rhs ], [ 0, %land.lhs.true41 ], [ 0, %lor.lhs.false39 ], [ 0, %if.end ], [ %22, %land.rhs45 ]
  ret i8 %retval.0
}